target datalayout = "e-m:e-p270:32:32-p271:32:32-p272:64:64-i64:64-i128:128-f80:128-n8:16:32:64-S128"
target triple = "x86_64-pc-linux-gnu"

%struct.SDL_WaylandSeat = type { ptr, ptr, ptr, ptr, ptr, %struct.wl_list, i32, i32, %struct.anon, %struct.anon.1, %struct.anon.4, %struct.anon.5, %struct.anon.6 }
%struct.wl_list = type { ptr, ptr }
%struct.anon = type { ptr, ptr, ptr, ptr, ptr, %struct.SDL_WaylandKeyboardRepeat, i64, i16, i16, i32, i8, %struct.anon.0 }
%struct.SDL_WaylandKeyboardRepeat = type { i32, i32, i32, i8, i8, i32, i64, i64, i64, i32, [8 x i8] }
%struct.anon.0 = type { ptr, ptr, ptr, ptr, i32, i32, i32, i32, i32, i32, i32, i32, i32, i32, i32 }
%struct.anon.1 = type { ptr, ptr, ptr, ptr, ptr, ptr, ptr, ptr, i64, i32, i32, %struct.SDL_Point, i32, %struct.anon.2, %struct.anon.3 }
%struct.SDL_Point = type { i32, i32 }
%struct.anon.2 = type { i32, float, i32, float, i64, i32 }
%struct.anon.3 = type { ptr, ptr, ptr, i64, i64, i32 }
%struct.anon.4 = type { ptr, ptr, i64, %struct.wl_list }
%struct.anon.5 = type { ptr, %struct.SDL_Rect, i8, i8 }
%struct.SDL_Rect = type { i32, i32, i32, i32 }
%struct.anon.6 = type { ptr, %struct.wl_list }
%struct.SDL_VideoData = type { i8, ptr, i32, ptr, ptr, ptr, ptr, i32, %struct.anon.7, ptr, ptr, ptr, ptr, ptr, ptr, ptr, ptr, ptr, ptr, ptr, ptr, ptr, ptr, ptr, ptr, ptr, ptr, ptr, ptr, ptr, ptr, %struct.wl_list, ptr, ptr, ptr, ptr, i32, i32, i8, i8 }
%struct.anon.7 = type { ptr }
%struct.SDL_AtomicInt = type { i32 }
%struct.SDL_WindowData = type { ptr, ptr, ptr, ptr, ptr, ptr, ptr, %union.anon, i32, i32, i32, i32, ptr, ptr, ptr, ptr, ptr, ptr, ptr, ptr, ptr, ptr, ptr, ptr, ptr, ptr, %struct.SDL_AtomicInt, ptr, i32, ptr, double, ptr, i32, i32, i32, i32, %struct.anon.14, %struct.anon.15, %struct.anon.16, %struct.anon.17, %struct.anon.18, %struct.anon.19, %struct.anon.20, i32, i32, i32, i64, i32, i32, i8, i8, i8, i8, i8, i8, i8, i8, i8, i8, i8, i8, i8, i8, i32, %struct.wl_list }
%union.anon = type { %struct.anon.10 }
%struct.anon.10 = type { ptr, %union.anon.11, i8 }
%union.anon.11 = type { %struct.anon.13 }
%struct.anon.13 = type { ptr, ptr }
%struct.anon.14 = type { double, double }
%struct.anon.15 = type { i32, i32, i32, i32 }
%struct.anon.16 = type { i32, i32, i32, i32 }
%struct.anon.17 = type { i32, i32 }
%struct.anon.18 = type { i32, i32 }
%struct.anon.19 = type { i32, i32 }
%struct.anon.20 = type { i32, i32, i8 }
%struct.SDL_WaylandTouchPoint = type { i64, i32, i32, ptr, %struct.wl_list }
%union.anon.21 = type { double }

@WAYLAND_wl_list_insert = external global ptr, align 8
@Wayland_EventTimestampMSToNS.timestamp_offset = internal global i64 0, align 8
@Wayland_EventTimestampMSToNS.last = internal global i32 0, align 4
@Wayland_AdjustEventTimestampBase.timestamp_offset = internal global i64 0, align 8

; Function Attrs: nounwind uwtable
define internal i64 @Wayland_AdjustEventTimestampBase(i64 noundef %0) #0 {
  %2 = alloca i64, align 8
  %3 = alloca i64, align 8
  store i64 %0, ptr %2, align 8
  call void @llvm.lifetime.start.p0(i64 8, ptr %3) #10
  %4 = call i64 @SDL_GetTicksNS_REAL()
  store i64 %4, ptr %3, align 8
  %5 = load i64, ptr @Wayland_AdjustEventTimestampBase.timestamp_offset, align 8
  %6 = icmp ne i64 %5, 0
  br i1 %6, label %11, label %7

7:                                                ; preds = %1
  %8 = load i64, ptr %3, align 8
  %9 = load i64, ptr %2, align 8
  %10 = sub i64 %8, %9
  store i64 %10, ptr @Wayland_AdjustEventTimestampBase.timestamp_offset, align 8
  br label %11

11:                                               ; preds = %7, %1
  %12 = load i64, ptr @Wayland_AdjustEventTimestampBase.timestamp_offset, align 8
  %13 = load i64, ptr %2, align 8
  %14 = add i64 %13, %12
  store i64 %14, ptr %2, align 8
  %15 = load i64, ptr %2, align 8
  %16 = load i64, ptr %3, align 8
  %17 = icmp ugt i64 %15, %16
  br i1 %17, label %18, label %25

18:                                               ; preds = %11
  %19 = load i64, ptr %2, align 8
  %20 = load i64, ptr %3, align 8
  %21 = sub i64 %19, %20
  %22 = load i64, ptr @Wayland_AdjustEventTimestampBase.timestamp_offset, align 8
  %23 = sub i64 %22, %21
  store i64 %23, ptr @Wayland_AdjustEventTimestampBase.timestamp_offset, align 8
  %24 = load i64, ptr %3, align 8
  store i64 %24, ptr %2, align 8
  br label %25

25:                                               ; preds = %18, %11
  %26 = load i64, ptr %2, align 8
  call void @llvm.lifetime.end.p0(i64 8, ptr %3) #10
  ret i64 %26
}

; Function Attrs: nounwind uwtable
define internal i64 @Wayland_EventTimestampMSToNS(i32 noundef %0) #0 {
  %2 = alloca i32, align 4
  store i32 %0, ptr %2, align 4
  %3 = load i32, ptr %2, align 4
  %4 = load i32, ptr @Wayland_EventTimestampMSToNS.last, align 4
  %5 = icmp ult i32 %3, %4
  br i1 %5, label %6, label %9

6:                                                ; preds = %1
  %7 = load i64, ptr @Wayland_EventTimestampMSToNS.timestamp_offset, align 8
  %8 = add i64 %7, 4294967296000000
  store i64 %8, ptr @Wayland_EventTimestampMSToNS.timestamp_offset, align 8
  br label %9

9:                                                ; preds = %6, %1
  %10 = load i32, ptr %2, align 4
  store i32 %10, ptr @Wayland_EventTimestampMSToNS.last, align 4
  %11 = load i32, ptr %2, align 4
  %12 = zext i32 %11 to i64
  %13 = mul i64 %12, 1000000
  %14 = load i64, ptr @Wayland_EventTimestampMSToNS.timestamp_offset, align 8
  %15 = add i64 %13, %14
  ret i64 %15
}

; Function Attrs: nounwind uwtable
define hidden i64 @Wayland_GetTouchTimestamp(ptr noundef %0, i32 noundef %1) #0 {
  %3 = alloca ptr, align 8
  %4 = alloca i32, align 4
  %5 = alloca i64, align 8
  store ptr %0, ptr %3, align 8
  store i32 %1, ptr %4, align 4
  call void @llvm.lifetime.start.p0(i64 8, ptr %5) #10
  %6 = load i32, ptr %4, align 4
  %7 = call i64 @Wayland_EventTimestampMSToNS(i32 noundef %6)
  store i64 %7, ptr %5, align 8
  %8 = load ptr, ptr %3, align 8
  %9 = getelementptr inbounds nuw %struct.SDL_WaylandSeat, ptr %8, i32 0, i32 10
  %10 = getelementptr inbounds nuw %struct.anon.4, ptr %9, i32 0, i32 1
  %11 = load ptr, ptr %10, align 8
  %12 = icmp ne ptr %11, null
  br i1 %12, label %13, label %18

13:                                               ; preds = %2
  %14 = load ptr, ptr %3, align 8
  %15 = getelementptr inbounds nuw %struct.SDL_WaylandSeat, ptr %14, i32 0, i32 10
  %16 = getelementptr inbounds nuw %struct.anon.4, ptr %15, i32 0, i32 2
  %17 = load i64, ptr %16, align 8
  br label %20

18:                                               ; preds = %2
  %19 = load i64, ptr %5, align 8
  br label %20

20:                                               ; preds = %18, %13
  %21 = phi i64 [ %17, %13 ], [ %19, %18 ]
  %22 = call i64 @Wayland_AdjustEventTimestampBase(i64 noundef %21)
  call void @llvm.lifetime.end.p0(i64 8, ptr %5) #10
  ret i64 %22
}

; Function Attrs: inlinehint nounwind uwtable
define internal double @wl_fixed_to_double(i32 noundef %0) #2 {
  %2 = alloca i32, align 4
  %3 = alloca %union.anon.21, align 8
  store i32 %0, ptr %2, align 4
  call void @llvm.lifetime.start.p0(i64 8, ptr %3) #10
  %4 = load i32, ptr %2, align 4
  %5 = sext i32 %4 to i64
  %6 = add nsw i64 4807592602218004480, %5
  store i64 %6, ptr %3, align 8
  %7 = load double, ptr %3, align 8
  %8 = fsub double %7, 0x42B8000000000000
  call void @llvm.lifetime.end.p0(i64 8, ptr %3) #10
  ret double %8
}

; Function Attrs: nounwind uwtable
define hidden void @Wayland_UpdateImplicitGrabSerial(ptr noundef %0, i32 noundef %1) #0 {
  %3 = alloca ptr, align 8
  %4 = alloca i32, align 4
  store ptr %0, ptr %3, align 8
  store i32 %1, ptr %4, align 4
  %5 = load i32, ptr %4, align 4
  %6 = load ptr, ptr %3, align 8
  %7 = getelementptr inbounds nuw %struct.SDL_WaylandSeat, ptr %6, i32 0, i32 6
  %8 = load i32, ptr %7, align 8
  %9 = icmp ugt i32 %5, %8
  br i1 %9, label %10, label %27

10:                                               ; preds = %2
  %11 = load i32, ptr %4, align 4
  %12 = load ptr, ptr %3, align 8
  %13 = getelementptr inbounds nuw %struct.SDL_WaylandSeat, ptr %12, i32 0, i32 6
  store i32 %11, ptr %13, align 8
  %14 = load ptr, ptr %3, align 8
  %15 = load ptr, ptr %3, align 8
  %16 = getelementptr inbounds nuw %struct.SDL_WaylandSeat, ptr %15, i32 0, i32 0
  %17 = load ptr, ptr %16, align 8
  %18 = getelementptr inbounds nuw %struct.SDL_VideoData, ptr %17, i32 0, i32 32
  store ptr %14, ptr %18, align 8
  %19 = load ptr, ptr %3, align 8
  %20 = getelementptr inbounds nuw %struct.SDL_WaylandSeat, ptr %19, i32 0, i32 2
  %21 = load ptr, ptr %20, align 8
  %22 = load i32, ptr %4, align 4
  call void @Wayland_data_device_set_serial(ptr noundef %21, i32 noundef %22)
  %23 = load ptr, ptr %3, align 8
  %24 = getelementptr inbounds nuw %struct.SDL_WaylandSeat, ptr %23, i32 0, i32 3
  %25 = load ptr, ptr %24, align 8
  %26 = load i32, ptr %4, align 4
  call void @Wayland_primary_selection_device_set_serial(ptr noundef %25, i32 noundef %26)
  br label %27

27:                                               ; preds = %10, %2
  ret void
}

; Function Attrs: nounwind uwtable
define internal void @Wayland_SeatAddTouch(ptr noundef %0, i64 noundef %1, i32 noundef %2, i32 noundef %3, ptr noundef %4) #0 {
  %6 = alloca ptr, align 8
  %7 = alloca i64, align 8
  %8 = alloca i32, align 4
  %9 = alloca i32, align 4
  %10 = alloca ptr, align 8
  %11 = alloca ptr, align 8
  store ptr %0, ptr %6, align 8
  store i64 %1, ptr %7, align 8
  store i32 %2, ptr %8, align 4
  store i32 %3, ptr %9, align 4
  store ptr %4, ptr %10, align 8
  call void @llvm.lifetime.start.p0(i64 8, ptr %11) #10
  %12 = call noalias ptr @SDL_malloc_REAL(i64 noundef 40)
  store ptr %12, ptr %11, align 8
  %13 = load ptr, ptr %11, align 8
  call void @llvm.memset.p0.i64(ptr align 8 %13, i8 0, i64 40, i1 false)
  %14 = load i64, ptr %7, align 8
  %15 = load ptr, ptr %11, align 8
  %16 = getelementptr inbounds nuw %struct.SDL_WaylandTouchPoint, ptr %15, i32 0, i32 0
  store i64 %14, ptr %16, align 8
  %17 = load i32, ptr %8, align 4
  %18 = load ptr, ptr %11, align 8
  %19 = getelementptr inbounds nuw %struct.SDL_WaylandTouchPoint, ptr %18, i32 0, i32 1
  store i32 %17, ptr %19, align 8
  %20 = load i32, ptr %9, align 4
  %21 = load ptr, ptr %11, align 8
  %22 = getelementptr inbounds nuw %struct.SDL_WaylandTouchPoint, ptr %21, i32 0, i32 2
  store i32 %20, ptr %22, align 4
  %23 = load ptr, ptr %10, align 8
  %24 = load ptr, ptr %11, align 8
  %25 = getelementptr inbounds nuw %struct.SDL_WaylandTouchPoint, ptr %24, i32 0, i32 3
  store ptr %23, ptr %25, align 8
  %26 = load ptr, ptr @WAYLAND_wl_list_insert, align 8
  %27 = load ptr, ptr %6, align 8
  %28 = getelementptr inbounds nuw %struct.SDL_WaylandSeat, ptr %27, i32 0, i32 10
  %29 = getelementptr inbounds nuw %struct.anon.4, ptr %28, i32 0, i32 3
  %30 = load ptr, ptr %11, align 8
  %31 = getelementptr inbounds nuw %struct.SDL_WaylandTouchPoint, ptr %30, i32 0, i32 4
  call void %26(ptr noundef %29, ptr noundef %31)
  call void @llvm.lifetime.end.p0(i64 8, ptr %11) #10
  ret void
}

; Function Attrs: nounwind uwtable
define internal void @touch_handler_down(ptr noundef %0, ptr noundef %1, i32 noundef %2, i32 noundef %3, ptr noundef %4, i32 noundef %5, i32 noundef %6, i32 noundef %7) #0 {
  %9 = alloca ptr, align 8
  %10 = alloca ptr, align 8
  %11 = alloca i32, align 4
  %12 = alloca i32, align 4
  %13 = alloca ptr, align 8
  %14 = alloca i32, align 4
  %15 = alloca i32, align 4
  %16 = alloca i32, align 4
  %17 = alloca ptr, align 8
  %18 = alloca ptr, align 8
  %19 = alloca i32, align 4
  %20 = alloca float, align 4
  %21 = alloca float, align 4
  store ptr %0, ptr %9, align 8
  store ptr %1, ptr %10, align 8
  store i32 %2, ptr %11, align 4
  store i32 %3, ptr %12, align 4
  store ptr %4, ptr %13, align 8
  store i32 %5, ptr %14, align 4
  store i32 %6, ptr %15, align 4
  store i32 %7, ptr %16, align 4
  call void @llvm.lifetime.start.p0(i64 8, ptr %17) #10
  %22 = load ptr, ptr %9, align 8
  store ptr %22, ptr %17, align 8
  call void @llvm.lifetime.start.p0(i64 8, ptr %18) #10
  %23 = load ptr, ptr %13, align 8
  %24 = icmp ne ptr %23, null
  br i1 %24, label %26, label %25

25:                                               ; preds = %8
  store i32 1, ptr %19, align 4
  br label %97

26:                                               ; preds = %8
  %27 = load ptr, ptr %17, align 8
  %28 = load i32, ptr %14, align 4
  %29 = sext i32 %28 to i64
  %30 = load i32, ptr %15, align 4
  %31 = load i32, ptr %16, align 4
  %32 = load ptr, ptr %13, align 8
  call void @Wayland_SeatAddTouch(ptr noundef %27, i64 noundef %29, i32 noundef %30, i32 noundef %31, ptr noundef %32)
  %33 = load ptr, ptr %17, align 8
  %34 = load i32, ptr %11, align 4
  call void @Wayland_UpdateImplicitGrabSerial(ptr noundef %33, i32 noundef %34)
  %35 = load ptr, ptr %13, align 8
  %36 = call ptr @Wayland_GetWindowDataForOwnedSurface(ptr noundef %35)
  store ptr %36, ptr %18, align 8
  %37 = load ptr, ptr %18, align 8
  %38 = icmp ne ptr %37, null
  br i1 %38, label %39, label %96

39:                                               ; preds = %26
  call void @llvm.lifetime.start.p0(i64 4, ptr %20) #10
  call void @llvm.lifetime.start.p0(i64 4, ptr %21) #10
  %40 = load ptr, ptr %18, align 8
  %41 = getelementptr inbounds nuw %struct.SDL_WindowData, ptr %40, i32 0, i32 38
  %42 = getelementptr inbounds nuw %struct.anon.16, ptr %41, i32 0, i32 0
  %43 = load i32, ptr %42, align 8
  %44 = icmp sle i32 %43, 1
  br i1 %44, label %45, label %46

45:                                               ; preds = %39
  store float 5.000000e-01, ptr %20, align 4
  br label %57

46:                                               ; preds = %39
  %47 = load i32, ptr %15, align 4
  %48 = call double @wl_fixed_to_double(i32 noundef %47)
  %49 = fptrunc double %48 to float
  %50 = load ptr, ptr %18, align 8
  %51 = getelementptr inbounds nuw %struct.SDL_WindowData, ptr %50, i32 0, i32 38
  %52 = getelementptr inbounds nuw %struct.anon.16, ptr %51, i32 0, i32 0
  %53 = load i32, ptr %52, align 8
  %54 = sub nsw i32 %53, 1
  %55 = sitofp i32 %54 to float
  %56 = fdiv float %49, %55
  store float %56, ptr %20, align 4
  br label %57

57:                                               ; preds = %46, %45
  %58 = load ptr, ptr %18, align 8
  %59 = getelementptr inbounds nuw %struct.SDL_WindowData, ptr %58, i32 0, i32 38
  %60 = getelementptr inbounds nuw %struct.anon.16, ptr %59, i32 0, i32 1
  %61 = load i32, ptr %60, align 4
  %62 = icmp sle i32 %61, 1
  br i1 %62, label %63, label %64

63:                                               ; preds = %57
  store float 5.000000e-01, ptr %21, align 4
  br label %75

64:                                               ; preds = %57
  %65 = load i32, ptr %16, align 4
  %66 = call double @wl_fixed_to_double(i32 noundef %65)
  %67 = fptrunc double %66 to float
  %68 = load ptr, ptr %18, align 8
  %69 = getelementptr inbounds nuw %struct.SDL_WindowData, ptr %68, i32 0, i32 38
  %70 = getelementptr inbounds nuw %struct.anon.16, ptr %69, i32 0, i32 1
  %71 = load i32, ptr %70, align 4
  %72 = sub nsw i32 %71, 1
  %73 = sitofp i32 %72 to float
  %74 = fdiv float %67, %73
  store float %74, ptr %21, align 4
  br label %75

75:                                               ; preds = %64, %63
  %76 = load ptr, ptr %18, align 8
  %77 = getelementptr inbounds nuw %struct.SDL_WindowData, ptr %76, i32 0, i32 35
  %78 = load i32, ptr %77, align 4
  %79 = add nsw i32 %78, 1
  store i32 %79, ptr %77, align 4
  %80 = load ptr, ptr %18, align 8
  %81 = getelementptr inbounds nuw %struct.SDL_WindowData, ptr %80, i32 0, i32 0
  %82 = load ptr, ptr %81, align 8
  call void @SDL_SetMouseFocus(ptr noundef %82)
  %83 = load ptr, ptr %17, align 8
  %84 = load i32, ptr %12, align 4
  %85 = call i64 @Wayland_GetTouchTimestamp(ptr noundef %83, i32 noundef %84)
  %86 = load ptr, ptr %10, align 8
  %87 = ptrtoint ptr %86 to i64
  %88 = load i32, ptr %14, align 4
  %89 = add nsw i32 %88, 1
  %90 = sext i32 %89 to i64
  %91 = load ptr, ptr %18, align 8
  %92 = getelementptr inbounds nuw %struct.SDL_WindowData, ptr %91, i32 0, i32 0
  %93 = load ptr, ptr %92, align 8
  %94 = load float, ptr %20, align 4
  %95 = load float, ptr %21, align 4
  call void @SDL_SendTouch(i64 noundef %85, i64 noundef %87, i64 noundef %90, ptr noundef %93, i32 noundef 1792, float noundef %94, float noundef %95, float noundef 1.000000e+00)
  call void @llvm.lifetime.end.p0(i64 4, ptr %21) #10
  call void @llvm.lifetime.end.p0(i64 4, ptr %20) #10
  br label %96

96:                                               ; preds = %75, %26
  store i32 0, ptr %19, align 4
  br label %97

97:                                               ; preds = %96, %25
  call void @llvm.lifetime.end.p0(i64 8, ptr %18) #10
  call void @llvm.lifetime.end.p0(i64 8, ptr %17) #10
  %98 = load i32, ptr %19, align 4
  switch i32 %98, label %100 [
    i32 0, label %99
    i32 1, label %99
  ]

99:                                               ; preds = %97, %97
  ret void

100:                                              ; preds = %97
  unreachable
}