; Function Attrs: nounwind uwtable
define internal void @touch_handler_down(ptr noundef %0, ptr noundef %1, i32 noundef %2, i32 noundef %3, ptr noundef %4, i32 noundef %5, i32 noundef %6, i32 noundef %7) #0 {
  %.not = icmp eq ptr %4, null
  br i1 %.not, label %86, label %9

9:                                                ; preds = %8
  %10 = sext i32 %5 to i64
  %11 = tail call noalias ptr @SDL_malloc_REAL(i64 noundef 40) #12
  %12 = getelementptr inbounds nuw i8, ptr %11, i64 24
  tail call void @llvm.memset.p0.i64(ptr noundef nonnull align 8 dereferenceable(16) %12, i8 0, i64 16, i1 false)
  store i64 %10, ptr %11, align 8
  %13 = getelementptr inbounds nuw i8, ptr %11, i64 8
  store i32 %6, ptr %13, align 8
  %14 = getelementptr inbounds nuw i8, ptr %11, i64 12
  store i32 %7, ptr %14, align 4
  %15 = getelementptr inbounds nuw i8, ptr %11, i64 16
  store ptr %4, ptr %15, align 8
  %16 = load ptr, ptr @WAYLAND_wl_list_insert, align 8
  %17 = getelementptr inbounds nuw i8, ptr %0, i64 472
  tail call void %16(ptr noundef nonnull %17, ptr noundef nonnull %12) #12
  %18 = getelementptr inbounds nuw i8, ptr %0, i64 56
  %19 = load i32, ptr %18, align 8
  %20 = icmp ugt i32 %2, %19
  br i1 %20, label %21, label %Wayland_UpdateImplicitGrabSerial.exit

21:                                               ; preds = %9
  store i32 %2, ptr %18, align 8
  %22 = load ptr, ptr %0, align 8
  %23 = getelementptr inbounds nuw i8, ptr %22, i64 264
  store ptr %0, ptr %23, align 8
  %24 = getelementptr inbounds nuw i8, ptr %0, i64 16
  %25 = load ptr, ptr %24, align 8
  tail call void @Wayland_data_device_set_serial(ptr noundef %25, i32 noundef %2) #12
  %26 = getelementptr inbounds nuw i8, ptr %0, i64 24
  %27 = load ptr, ptr %26, align 8
  tail call void @Wayland_primary_selection_device_set_serial(ptr noundef %27, i32 noundef %2) #12
  br label %Wayland_UpdateImplicitGrabSerial.exit

Wayland_UpdateImplicitGrabSerial.exit:            ; preds = %9, %21
  %28 = tail call ptr @Wayland_GetWindowDataForOwnedSurface(ptr noundef nonnull %4) #12
  %.not28 = icmp eq ptr %28, null
  br i1 %.not28, label %86, label %29

29:                                               ; preds = %Wayland_UpdateImplicitGrabSerial.exit
  %30 = getelementptr inbounds nuw i8, ptr %28, i64 312
  %31 = load i32, ptr %30, align 8
  %32 = icmp slt i32 %31, 2
  br i1 %32, label %42, label %33

33:                                               ; preds = %29
  %34 = sext i32 %6 to i64
  %35 = add nsw i64 %34, 4807592602218004480
  %36 = bitcast i64 %35 to double
  %37 = fadd double %36, 0xC2B8000000000000
  %38 = fptrunc double %37 to float
  %39 = add nsw i32 %31, -1
  %40 = uitofp nneg i32 %39 to float
  %41 = fdiv float %38, %40
  br label %42

42:                                               ; preds = %29, %33
  %.025 = phi float [ %41, %33 ], [ 5.000000e-01, %29 ]
  %43 = getelementptr inbounds nuw i8, ptr %28, i64 316
  %44 = load i32, ptr %43, align 4
  %45 = icmp slt i32 %44, 2
  br i1 %45, label %55, label %46

46:                                               ; preds = %42
  %47 = sext i32 %7 to i64
  %48 = add nsw i64 %47, 4807592602218004480
  %49 = bitcast i64 %48 to double
  %50 = fadd double %49, 0xC2B8000000000000
  %51 = fptrunc double %50 to float
  %52 = add nsw i32 %44, -1
  %53 = uitofp nneg i32 %52 to float
  %54 = fdiv float %51, %53
  br label %55

55:                                               ; preds = %42, %46
  %.0 = phi float [ %54, %46 ], [ 5.000000e-01, %42 ]
  %56 = getelementptr inbounds nuw i8, ptr %28, i64 276
  %57 = load i32, ptr %56, align 4
  %58 = add nsw i32 %57, 1
  store i32 %58, ptr %56, align 4
  %59 = load ptr, ptr %28, align 8
  tail call void @SDL_SetMouseFocus(ptr noundef %59) #12
  %60 = load i32, ptr @Wayland_EventTimestampMSToNS.last, align 4
  %61 = icmp ult i32 %3, %60
  %.pre.i.i = load i64, ptr @Wayland_EventTimestampMSToNS.timestamp_offset, align 8
  br i1 %61, label %62, label %Wayland_EventTimestampMSToNS.exit.i

62:                                               ; preds = %55
  %63 = add i64 %.pre.i.i, 4294967296000000
  store i64 %63, ptr @Wayland_EventTimestampMSToNS.timestamp_offset, align 8
  br label %Wayland_EventTimestampMSToNS.exit.i

Wayland_EventTimestampMSToNS.exit.i:              ; preds = %62, %55
  %64 = phi i64 [ %63, %62 ], [ %.pre.i.i, %55 ]
  store i32 %3, ptr @Wayland_EventTimestampMSToNS.last, align 4
  %65 = zext i32 %3 to i64
  %66 = mul nuw nsw i64 %65, 1000000
  %67 = add i64 %64, %66
  %68 = getelementptr inbounds nuw i8, ptr %0, i64 456
  %69 = load ptr, ptr %68, align 8
  %.not.i = icmp eq ptr %69, null
  br i1 %.not.i, label %73, label %70

70:                                               ; preds = %Wayland_EventTimestampMSToNS.exit.i
  %71 = getelementptr inbounds nuw i8, ptr %0, i64 464
  %72 = load i64, ptr %71, align 8
  br label %73

73:                                               ; preds = %70, %Wayland_EventTimestampMSToNS.exit.i
  %74 = phi i64 [ %72, %70 ], [ %67, %Wayland_EventTimestampMSToNS.exit.i ]
  %75 = tail call i64 @SDL_GetTicksNS_REAL() #12
  %76 = load i64, ptr @Wayland_AdjustEventTimestampBase.timestamp_offset, align 8
  %.not.not.i.i = icmp eq i64 %76, 0
  %77 = sub i64 %75, %74
  %78 = select i1 %.not.not.i.i, i64 %77, i64 %76
  %79 = add i64 %78, %74
  %.not.i.i = icmp ugt i64 %79, %75
  %80 = or i1 %.not.not.i.i, %.not.i.i
  br i1 %80, label %81, label %Wayland_GetTouchTimestamp.exit

81:                                               ; preds = %73
  %simplifycfg.merge.i.i = select i1 %.not.i.i, i64 %77, i64 %78
  store i64 %simplifycfg.merge.i.i, ptr @Wayland_AdjustEventTimestampBase.timestamp_offset, align 8
  br label %Wayland_GetTouchTimestamp.exit

Wayland_GetTouchTimestamp.exit:                   ; preds = %73, %81
  %.0.i.i = tail call i64 @llvm.umin.i64(i64 %79, i64 %75)
  %82 = ptrtoint ptr %1 to i64
  %83 = add nsw i32 %5, 1
  %84 = sext i32 %83 to i64
  %85 = load ptr, ptr %28, align 8
  tail call void @SDL_SendTouch(i64 noundef %.0.i.i, i64 noundef %82, i64 noundef %84, ptr noundef %85, i32 noundef 1792, float noundef %.025, float noundef %.0, float noundef 1.000000e+00) #12
  br label %86

86:                                               ; preds = %Wayland_UpdateImplicitGrabSerial.exit, %Wayland_GetTouchTimestamp.exit, %8
  ret void
}